target datalayout = "e-m:e-p270:32:32-p271:32:32-p272:64:64-i64:64-i128:128-f80:128-n8:16:32:64-S128"
target triple = "x86_64-pc-linux-gnu"

%union.ListCell = type { ptr }
%struct.QualCost = type { double, double }
%struct.PlannerInfo = type { i32, ptr, ptr, i32, ptr, ptr, ptr, ptr, i32, ptr, ptr, ptr, ptr, ptr, ptr, ptr, ptr, i32, ptr, ptr, ptr, ptr, ptr, i8, ptr, ptr, ptr, ptr, ptr, i32, ptr, ptr, ptr, ptr, ptr, ptr, ptr, i32, ptr, ptr, ptr, i32, ptr, ptr, ptr, ptr, ptr, ptr, [8 x ptr], [8 x ptr], ptr, ptr, ptr, ptr, ptr, ptr, ptr, double, double, double, i32, i8, i8, i8, i8, i8, i8, i8, i32, ptr, ptr, i32, i8, i8, i32, ptr, ptr, ptr, ptr, ptr, ptr, i8, ptr }
%struct.List = type { i32, i32, i32, ptr, [0 x %union.ListCell] }
%struct.EquivalenceClass = type { i32, ptr, i32, ptr, ptr, ptr, ptr, i8, i8, i8, i32, i32, i32, ptr }
%struct.EquivalenceMember = type { i32, ptr, ptr, i8, i8, i32, ptr, ptr }
%struct.Node = type { i32 }
%struct.RelOptInfo = type { i32, i32, ptr, double, i8, i8, i8, ptr, ptr, ptr, ptr, ptr, ptr, ptr, ptr, ptr, ptr, i32, i32, i32, i16, i16, ptr, ptr, ptr, ptr, ptr, ptr, ptr, ptr, i32, double, double, ptr, ptr, ptr, i32, i32, i32, i32, i8, ptr, ptr, ptr, ptr, ptr, %struct.QualCost, i32, ptr, i8, i8, ptr, ptr, ptr, ptr, i32, ptr, i8, ptr, ptr, ptr, ptr, ptr, ptr }

; Function Attrs: inlinehint nounwind uwtable
define internal ptr @newNode(i64 noundef %0, i32 noundef %1) #2 {
  %3 = alloca i64, align 8
  %4 = alloca i32, align 4
  %5 = alloca ptr, align 8
  store i64 %0, ptr %3, align 8
  store i32 %1, ptr %4, align 4
  call void @llvm.lifetime.start.p0(i64 8, ptr %5) #6
  %6 = load i64, ptr %3, align 8
  %7 = call ptr @palloc0(i64 noundef %6)
  store ptr %7, ptr %5, align 8
  %8 = load i32, ptr %4, align 4
  %9 = load ptr, ptr %5, align 8
  %10 = getelementptr inbounds nuw %struct.Node, ptr %9, i32 0, i32 0
  store i32 %8, ptr %10, align 4
  %11 = load ptr, ptr %5, align 8
  call void @llvm.lifetime.end.p0(i64 8, ptr %5) #6
  ret ptr %11
}

; Function Attrs: inlinehint nounwind uwtable
define internal ptr @list_nth_cell(ptr noundef %0, i32 noundef %1) #2 {
  %3 = alloca ptr, align 8
  %4 = alloca i32, align 4
  store ptr %0, ptr %3, align 8
  store i32 %1, ptr %4, align 4
  %5 = load ptr, ptr %3, align 8
  %6 = getelementptr inbounds nuw %struct.List, ptr %5, i32 0, i32 3
  %7 = load ptr, ptr %6, align 8
  %8 = load i32, ptr %4, align 4
  %9 = sext i32 %8 to i64
  %10 = getelementptr inbounds %union.ListCell, ptr %7, i64 %9
  ret ptr %10
}

; Function Attrs: nounwind uwtable
define internal ptr @add_eq_member(ptr noundef %0, ptr noundef %1, ptr noundef %2, ptr noundef %3, ptr noundef %4, i32 noundef %5) #0 {
  %7 = alloca ptr, align 8
  %8 = alloca ptr, align 8
  %9 = alloca ptr, align 8
  %10 = alloca ptr, align 8
  %11 = alloca ptr, align 8
  %12 = alloca i32, align 4
  %13 = alloca ptr, align 8
  store ptr %0, ptr %7, align 8
  store ptr %1, ptr %8, align 8
  store ptr %2, ptr %9, align 8
  store ptr %3, ptr %10, align 8
  store ptr %4, ptr %11, align 8
  store i32 %5, ptr %12, align 4
  call void @llvm.lifetime.start.p0(i64 8, ptr %13) #6
  %14 = call ptr @newNode(i64 noundef 48, i32 noundef 273)
  store ptr %14, ptr %13, align 8
  %15 = load ptr, ptr %8, align 8
  %16 = load ptr, ptr %13, align 8
  %17 = getelementptr inbounds nuw %struct.EquivalenceMember, ptr %16, i32 0, i32 1
  store ptr %15, ptr %17, align 8
  %18 = load ptr, ptr %9, align 8
  %19 = load ptr, ptr %13, align 8
  %20 = getelementptr inbounds nuw %struct.EquivalenceMember, ptr %19, i32 0, i32 2
  store ptr %18, ptr %20, align 8
  %21 = load ptr, ptr %13, align 8
  %22 = getelementptr inbounds nuw %struct.EquivalenceMember, ptr %21, i32 0, i32 3
  store i8 0, ptr %22, align 8
  %23 = load ptr, ptr %11, align 8
  %24 = icmp ne ptr %23, null
  %25 = load ptr, ptr %13, align 8
  %26 = getelementptr inbounds nuw %struct.EquivalenceMember, ptr %25, i32 0, i32 4
  %27 = zext i1 %24 to i8
  store i8 %27, ptr %26, align 1
  %28 = load i32, ptr %12, align 4
  %29 = load ptr, ptr %13, align 8
  %30 = getelementptr inbounds nuw %struct.EquivalenceMember, ptr %29, i32 0, i32 5
  store i32 %28, ptr %30, align 4
  %31 = load ptr, ptr %10, align 8
  %32 = load ptr, ptr %13, align 8
  %33 = getelementptr inbounds nuw %struct.EquivalenceMember, ptr %32, i32 0, i32 6
  store ptr %31, ptr %33, align 8
  %34 = load ptr, ptr %11, align 8
  %35 = load ptr, ptr %13, align 8
  %36 = getelementptr inbounds nuw %struct.EquivalenceMember, ptr %35, i32 0, i32 7
  store ptr %34, ptr %36, align 8
  %37 = load ptr, ptr %9, align 8
  %38 = icmp eq ptr %37, null
  br i1 %38, label %39, label %44

39:                                               ; preds = %6
  %40 = load ptr, ptr %13, align 8
  %41 = getelementptr inbounds nuw %struct.EquivalenceMember, ptr %40, i32 0, i32 3
  store i8 1, ptr %41, align 8
  %42 = load ptr, ptr %7, align 8
  %43 = getelementptr inbounds nuw %struct.EquivalenceClass, ptr %42, i32 0, i32 7
  store i8 1, ptr %43, align 8
  br label %56

44:                                               ; preds = %6
  %45 = load ptr, ptr %11, align 8
  %46 = icmp ne ptr %45, null
  br i1 %46, label %55, label %47

47:                                               ; preds = %44
  %48 = load ptr, ptr %7, align 8
  %49 = getelementptr inbounds nuw %struct.EquivalenceClass, ptr %48, i32 0, i32 6
  %50 = load ptr, ptr %49, align 8
  %51 = load ptr, ptr %9, align 8
  %52 = call ptr @bms_add_members(ptr noundef %50, ptr noundef %51)
  %53 = load ptr, ptr %7, align 8
  %54 = getelementptr inbounds nuw %struct.EquivalenceClass, ptr %53, i32 0, i32 6
  store ptr %52, ptr %54, align 8
  br label %55

55:                                               ; preds = %47, %44
  br label %56

56:                                               ; preds = %55, %39
  %57 = load ptr, ptr %7, align 8
  %58 = getelementptr inbounds nuw %struct.EquivalenceClass, ptr %57, i32 0, i32 3
  %59 = load ptr, ptr %58, align 8
  %60 = load ptr, ptr %13, align 8
  %61 = call ptr @lappend(ptr noundef %59, ptr noundef %60)
  %62 = load ptr, ptr %7, align 8
  %63 = getelementptr inbounds nuw %struct.EquivalenceClass, ptr %62, i32 0, i32 3
  store ptr %61, ptr %63, align 8
  %64 = load ptr, ptr %13, align 8
  call void @llvm.lifetime.end.p0(i64 8, ptr %13) #6
  ret ptr %64
}

; Function Attrs: inlinehint nounwind uwtable
define internal i32 @list_length(ptr noundef %0) #2 {
  %2 = alloca ptr, align 8
  store ptr %0, ptr %2, align 8
  %3 = load ptr, ptr %2, align 8
  %4 = icmp ne ptr %3, null
  br i1 %4, label %5, label %9

5:                                                ; preds = %1
  %6 = load ptr, ptr %2, align 8
  %7 = getelementptr inbounds nuw %struct.List, ptr %6, i32 0, i32 1
  %8 = load i32, ptr %7, align 4
  br label %10

9:                                                ; preds = %1
  br label %10

10:                                               ; preds = %9, %5
  %11 = phi i32 [ %8, %5 ], [ 0, %9 ]
  ret i32 %11
}

; Function Attrs: inlinehint nounwind uwtable
define internal ptr @list_nth(ptr noundef %0, i32 noundef %1) #2 {
  %3 = alloca ptr, align 8
  %4 = alloca i32, align 4
  store ptr %0, ptr %3, align 8
  store i32 %1, ptr %4, align 4
  %5 = load ptr, ptr %3, align 8
  %6 = load i32, ptr %4, align 4
  %7 = call ptr @list_nth_cell(ptr noundef %5, i32 noundef %6)
  %8 = load ptr, ptr %7, align 8
  ret ptr %8
}

; Function Attrs: nounwind uwtable
define dso_local void @add_child_rel_equivalences(ptr noundef %0, ptr noundef %1, ptr noundef %2, ptr noundef %3) #0 {
  %5 = alloca ptr, align 8
  %6 = alloca ptr, align 8
  %7 = alloca ptr, align 8
  %8 = alloca ptr, align 8
  %9 = alloca ptr, align 8
  %10 = alloca ptr, align 8
  %11 = alloca i32, align 4
  %12 = alloca ptr, align 8
  %13 = alloca i32, align 4
  %14 = alloca i32, align 4
  %15 = alloca i32, align 4
  %16 = alloca ptr, align 8
  %17 = alloca ptr, align 8
  %18 = alloca ptr, align 8
  store ptr %0, ptr %5, align 8
  store ptr %1, ptr %6, align 8
  store ptr %2, ptr %7, align 8
  store ptr %3, ptr %8, align 8
  call void @llvm.lifetime.start.p0(i64 8, ptr %9) #6
  %19 = load ptr, ptr %8, align 8
  %20 = getelementptr inbounds nuw %struct.RelOptInfo, ptr %19, i32 0, i32 53
  %21 = load ptr, ptr %20, align 8
  store ptr %21, ptr %9, align 8
  call void @llvm.lifetime.start.p0(i64 8, ptr %10) #6
  %22 = load ptr, ptr %8, align 8
  %23 = getelementptr inbounds nuw %struct.RelOptInfo, ptr %22, i32 0, i32 2
  %24 = load ptr, ptr %23, align 8
  store ptr %24, ptr %10, align 8
  call void @llvm.lifetime.start.p0(i64 4, ptr %11) #6
  store i32 -1, ptr %11, align 4
  br label %25

25:                                               ; preds = %139, %137, %4
  %26 = load ptr, ptr %7, align 8
  %27 = getelementptr inbounds nuw %struct.RelOptInfo, ptr %26, i32 0, i32 33
  %28 = load ptr, ptr %27, align 8
  %29 = load i32, ptr %11, align 4
  %30 = call i32 @bms_next_member(ptr noundef %28, i32 noundef %29)
  store i32 %30, ptr %11, align 4
  %31 = icmp sge i32 %30, 0
  br i1 %31, label %32, label %140

32:                                               ; preds = %25
  call void @llvm.lifetime.start.p0(i64 8, ptr %12) #6
  %33 = load ptr, ptr %5, align 8
  %34 = getelementptr inbounds nuw %struct.PlannerInfo, ptr %33, i32 0, i32 22
  %35 = load ptr, ptr %34, align 8
  %36 = load i32, ptr %11, align 4
  %37 = call ptr @list_nth(ptr noundef %35, i32 noundef %36)
  store ptr %37, ptr %12, align 8
  call void @llvm.lifetime.start.p0(i64 4, ptr %13) #6
  %38 = load ptr, ptr %12, align 8
  %39 = getelementptr inbounds nuw %struct.EquivalenceClass, ptr %38, i32 0, i32 8
  %40 = load i8, ptr %39, align 1, !range !4, !noundef !5
  %41 = trunc i8 %40 to i1
  br i1 %41, label %42, label %43

42:                                               ; preds = %32
  store i32 2, ptr %14, align 4
  br label %137, !llvm.loop !54

43:                                               ; preds = %32
  %44 = load ptr, ptr %12, align 8
  %45 = getelementptr inbounds nuw %struct.EquivalenceClass, ptr %44, i32 0, i32 3
  %46 = load ptr, ptr %45, align 8
  %47 = call i32 @list_length(ptr noundef %46)
  store i32 %47, ptr %13, align 4
  call void @llvm.lifetime.start.p0(i64 4, ptr %15) #6
  store i32 0, ptr %15, align 4
  br label %48

48:                                               ; preds = %133, %43
  %49 = load i32, ptr %15, align 4
  %50 = load i32, ptr %13, align 4
  %51 = icmp slt i32 %49, %50
  br i1 %51, label %53, label %52

52:                                               ; preds = %48
  store i32 4, ptr %14, align 4
  call void @llvm.lifetime.end.p0(i64 4, ptr %15) #6
  br label %136

53:                                               ; preds = %48
  call void @llvm.lifetime.start.p0(i64 8, ptr %16) #6
  %54 = load ptr, ptr %12, align 8
  %55 = getelementptr inbounds nuw %struct.EquivalenceClass, ptr %54, i32 0, i32 3
  %56 = load ptr, ptr %55, align 8
  %57 = load i32, ptr %15, align 4
  %58 = call ptr @list_nth(ptr noundef %56, i32 noundef %57)
  store ptr %58, ptr %16, align 8
  %59 = load ptr, ptr %16, align 8
  %60 = getelementptr inbounds nuw %struct.EquivalenceMember, ptr %59, i32 0, i32 3
  %61 = load i8, ptr %60, align 8, !range !4, !noundef !5
  %62 = trunc i8 %61 to i1
  br i1 %62, label %63, label %64

63:                                               ; preds = %53
  store i32 6, ptr %14, align 4
  br label %130

64:                                               ; preds = %53
  %65 = load ptr, ptr %16, align 8
  %66 = getelementptr inbounds nuw %struct.EquivalenceMember, ptr %65, i32 0, i32 4
  %67 = load i8, ptr %66, align 1, !range !4, !noundef !5
  %68 = trunc i8 %67 to i1
  br i1 %68, label %69, label %70

69:                                               ; preds = %64
  store i32 6, ptr %14, align 4
  br label %130

70:                                               ; preds = %64
  %71 = load ptr, ptr %16, align 8
  %72 = getelementptr inbounds nuw %struct.EquivalenceMember, ptr %71, i32 0, i32 2
  %73 = load ptr, ptr %72, align 8
  %74 = load ptr, ptr %9, align 8
  %75 = call zeroext i1 @bms_is_subset(ptr noundef %73, ptr noundef %74)
  br i1 %75, label %76, label %129

76:                                               ; preds = %70
  %77 = load ptr, ptr %16, align 8
  %78 = getelementptr inbounds nuw %struct.EquivalenceMember, ptr %77, i32 0, i32 2
  %79 = load ptr, ptr %78, align 8
  %80 = icmp eq ptr %79, null
  br i1 %80, label %129, label %81

81:                                               ; preds = %76
  call void @llvm.lifetime.start.p0(i64 8, ptr %17) #6
  call void @llvm.lifetime.start.p0(i64 8, ptr %18) #6
  %82 = load ptr, ptr %7, align 8
  %83 = getelementptr inbounds nuw %struct.RelOptInfo, ptr %82, i32 0, i32 1
  %84 = load i32, ptr %83, align 4
  %85 = icmp eq i32 %84, 0
  br i1 %85, label %86, label %92

86:                                               ; preds = %81
  %87 = load ptr, ptr %5, align 8
  %88 = load ptr, ptr %16, align 8
  %89 = getelementptr inbounds nuw %struct.EquivalenceMember, ptr %88, i32 0, i32 1
  %90 = load ptr, ptr %89, align 8
  %91 = call ptr @adjust_appendrel_attrs(ptr noundef %87, ptr noundef %90, i32 noundef 1, ptr noundef %6)
  store ptr %91, ptr %17, align 8
  br label %102

92:                                               ; preds = %81
  %93 = load ptr, ptr %5, align 8
  %94 = load ptr, ptr %16, align 8
  %95 = getelementptr inbounds nuw %struct.EquivalenceMember, ptr %94, i32 0, i32 1
  %96 = load ptr, ptr %95, align 8
  %97 = load ptr, ptr %8, align 8
  %98 = load ptr, ptr %8, align 8
  %99 = getelementptr inbounds nuw %struct.RelOptInfo, ptr %98, i32 0, i32 52
  %100 = load ptr, ptr %99, align 8
  %101 = call ptr @adjust_appendrel_attrs_multilevel(ptr noundef %93, ptr noundef %96, ptr noundef %97, ptr noundef %100)
  store ptr %101, ptr %17, align 8
  br label %102

102:                                              ; preds = %92, %86
  %103 = load ptr, ptr %16, align 8
  %104 = getelementptr inbounds nuw %struct.EquivalenceMember, ptr %103, i32 0, i32 2
  %105 = load ptr, ptr %104, align 8
  %106 = load ptr, ptr %9, align 8
  %107 = call ptr @bms_difference(ptr noundef %105, ptr noundef %106)
  store ptr %107, ptr %18, align 8
  %108 = load ptr, ptr %18, align 8
  %109 = load ptr, ptr %10, align 8
  %110 = call ptr @bms_add_members(ptr noundef %108, ptr noundef %109)
  store ptr %110, ptr %18, align 8
  %111 = load ptr, ptr %12, align 8
  %112 = load ptr, ptr %17, align 8
  %113 = load ptr, ptr %18, align 8
  %114 = load ptr, ptr %16, align 8
  %115 = getelementptr inbounds nuw %struct.EquivalenceMember, ptr %114, i32 0, i32 6
  %116 = load ptr, ptr %115, align 8
  %117 = load ptr, ptr %16, align 8
  %118 = load ptr, ptr %16, align 8
  %119 = getelementptr inbounds nuw %struct.EquivalenceMember, ptr %118, i32 0, i32 5
  %120 = load i32, ptr %119, align 4
  %121 = call ptr @add_eq_member(ptr noundef %111, ptr noundef %112, ptr noundef %113, ptr noundef %116, ptr noundef %117, i32 noundef %120)
  %122 = load ptr, ptr %8, align 8
  %123 = getelementptr inbounds nuw %struct.RelOptInfo, ptr %122, i32 0, i32 33
  %124 = load ptr, ptr %123, align 8
  %125 = load i32, ptr %11, align 4
  %126 = call ptr @bms_add_member(ptr noundef %124, i32 noundef %125)
  %127 = load ptr, ptr %8, align 8
  %128 = getelementptr inbounds nuw %struct.RelOptInfo, ptr %127, i32 0, i32 33
  store ptr %126, ptr %128, align 8
  call void @llvm.lifetime.end.p0(i64 8, ptr %18) #6
  call void @llvm.lifetime.end.p0(i64 8, ptr %17) #6
  br label %129

129:                                              ; preds = %102, %76, %70
  store i32 0, ptr %14, align 4
  br label %130

130:                                              ; preds = %129, %69, %63
  call void @llvm.lifetime.end.p0(i64 8, ptr %16) #6
  %131 = load i32, ptr %14, align 4
  switch i32 %131, label %141 [
    i32 0, label %132
    i32 6, label %133
  ]

132:                                              ; preds = %130
  br label %133

133:                                              ; preds = %132, %130
  %134 = load i32, ptr %15, align 4
  %135 = add i32 %134, 1
  store i32 %135, ptr %15, align 4
  br label %48, !llvm.loop !55

136:                                              ; preds = %52
  store i32 0, ptr %14, align 4
  br label %137

137:                                              ; preds = %136, %42
  call void @llvm.lifetime.end.p0(i64 4, ptr %13) #6
  call void @llvm.lifetime.end.p0(i64 8, ptr %12) #6
  %138 = load i32, ptr %14, align 4
  switch i32 %138, label %141 [
    i32 0, label %139
    i32 2, label %25
  ]

139:                                              ; preds = %137
  br label %25, !llvm.loop !54

140:                                              ; preds = %25
  call void @llvm.lifetime.end.p0(i64 4, ptr %11) #6
  call void @llvm.lifetime.end.p0(i64 8, ptr %10) #6
  call void @llvm.lifetime.end.p0(i64 8, ptr %9) #6
  ret void

141:                                              ; preds = %137, %130
  unreachable
}