; Function Attrs: nounwind uwtable
define dso_local void @add_child_rel_equivalences(ptr noundef %0, ptr noundef %1, ptr noundef readonly captures(none) %2, ptr noundef %3) local_unnamed_addr #0 {
  %5 = alloca ptr, align 8
  store ptr %1, ptr %5, align 8
  %6 = getelementptr inbounds nuw i8, ptr %3, i64 360
  %7 = load ptr, ptr %6, align 8
  %8 = getelementptr inbounds nuw i8, ptr %3, i64 8
  %9 = load ptr, ptr %8, align 8
  %10 = getelementptr inbounds nuw i8, ptr %2, i64 216
  %11 = load ptr, ptr %10, align 8
  %12 = tail call i32 @bms_next_member(ptr noundef %11, i32 noundef -1) #8
  %13 = icmp sgt i32 %12, -1
  br i1 %13, label %.lr.ph42, label %._crit_edge

.lr.ph42:                                         ; preds = %4
  %14 = getelementptr inbounds nuw i8, ptr %0, i64 176
  %15 = getelementptr inbounds nuw i8, ptr %2, i64 4
  %16 = getelementptr inbounds nuw i8, ptr %3, i64 352
  %17 = getelementptr inbounds nuw i8, ptr %3, i64 216
  br label %18

18:                                               ; preds = %.lr.ph42, %.loopexit
  %19 = phi i32 [ %12, %.lr.ph42 ], [ %88, %.loopexit ]
  %20 = load ptr, ptr %14, align 8
  %21 = getelementptr i8, ptr %20, i64 16
  %.val40 = load ptr, ptr %21, align 8
  %22 = zext nneg i32 %19 to i64
  %23 = getelementptr inbounds nuw %union.ListCell, ptr %.val40, i64 %22
  %24 = load ptr, ptr %23, align 8
  %25 = getelementptr inbounds nuw i8, ptr %24, i64 57
  %26 = load i8, ptr %25, align 1, !range !4, !noundef !5
  %27 = trunc nuw i8 %26 to i1
  br i1 %27, label %.loopexit, label %28, !llvm.loop !22

28:                                               ; preds = %18
  %29 = getelementptr inbounds nuw i8, ptr %24, i64 24
  %30 = load ptr, ptr %29, align 8
  %.not.i = icmp eq ptr %30, null
  br i1 %.not.i, label %.loopexit, label %list_length.exit

list_length.exit:                                 ; preds = %28
  %31 = getelementptr inbounds nuw i8, ptr %30, i64 4
  %32 = load i32, ptr %31, align 4
  %33 = icmp sgt i32 %32, 0
  br i1 %33, label %.lr.ph, label %.loopexit

.lr.ph:                                           ; preds = %list_length.exit
  %34 = getelementptr inbounds nuw i8, ptr %24, i64 56
  %wide.trip.count = zext nneg i32 %32 to i64
  br label %35

35:                                               ; preds = %.lr.ph, %86
  %indvars.iv = phi i64 [ 0, %.lr.ph ], [ %indvars.iv.next, %86 ]
  %36 = load ptr, ptr %29, align 8
  %37 = getelementptr i8, ptr %36, i64 16
  %.val = load ptr, ptr %37, align 8
  %38 = getelementptr inbounds nuw %union.ListCell, ptr %.val, i64 %indvars.iv
  %39 = load ptr, ptr %38, align 8
  %40 = getelementptr inbounds nuw i8, ptr %39, i64 24
  %41 = load i8, ptr %40, align 8, !range !4, !noundef !5
  %42 = trunc nuw i8 %41 to i1
  br i1 %42, label %86, label %43

43:                                               ; preds = %35
  %44 = getelementptr inbounds nuw i8, ptr %39, i64 25
  %45 = load i8, ptr %44, align 1, !range !4, !noundef !5
  %46 = trunc nuw i8 %45 to i1
  br i1 %46, label %86, label %47

47:                                               ; preds = %43
  %48 = getelementptr inbounds nuw i8, ptr %39, i64 16
  %49 = load ptr, ptr %48, align 8
  %50 = call zeroext i1 @bms_is_subset(ptr noundef %49, ptr noundef %7) #8
  br i1 %50, label %51, label %86

51:                                               ; preds = %47
  %52 = load ptr, ptr %48, align 8
  %53 = icmp eq ptr %52, null
  br i1 %53, label %86, label %54

54:                                               ; preds = %51
  %55 = load i32, ptr %15, align 4
  %56 = icmp eq i32 %55, 0
  %57 = getelementptr inbounds nuw i8, ptr %39, i64 8
  %58 = load ptr, ptr %57, align 8
  br i1 %56, label %59, label %61

59:                                               ; preds = %54
  %60 = call ptr @adjust_appendrel_attrs(ptr noundef %0, ptr noundef %58, i32 noundef 1, ptr noundef nonnull %5) #8
  br label %64

61:                                               ; preds = %54
  %62 = load ptr, ptr %16, align 8
  %63 = call ptr @adjust_appendrel_attrs_multilevel(ptr noundef %0, ptr noundef %58, ptr noundef %3, ptr noundef %62) #8
  br label %64

64:                                               ; preds = %61, %59
  %.037 = phi ptr [ %60, %59 ], [ %63, %61 ]
  %65 = load ptr, ptr %48, align 8
  %66 = call ptr @bms_difference(ptr noundef %65, ptr noundef %7) #8
  %67 = call ptr @bms_add_members(ptr noundef %66, ptr noundef %9) #8
  %68 = getelementptr inbounds nuw i8, ptr %39, i64 32
  %69 = load ptr, ptr %68, align 8
  %70 = getelementptr inbounds nuw i8, ptr %39, i64 28
  %71 = load i32, ptr %70, align 4
  %72 = call noundef ptr @palloc0(i64 noundef 48) #8
  store i32 273, ptr %72, align 4
  %73 = getelementptr inbounds nuw i8, ptr %72, i64 8
  store ptr %.037, ptr %73, align 8
  %74 = getelementptr inbounds nuw i8, ptr %72, i64 16
  store ptr %67, ptr %74, align 8
  %75 = getelementptr inbounds nuw i8, ptr %72, i64 24
  store i8 0, ptr %75, align 8
  %76 = getelementptr inbounds nuw i8, ptr %72, i64 25
  store i8 1, ptr %76, align 1
  %77 = getelementptr inbounds nuw i8, ptr %72, i64 28
  store i32 %71, ptr %77, align 4
  %78 = getelementptr inbounds nuw i8, ptr %72, i64 32
  store ptr %69, ptr %78, align 8
  %79 = getelementptr inbounds nuw i8, ptr %72, i64 40
  store ptr %39, ptr %79, align 8
  %80 = icmp eq ptr %67, null
  br i1 %80, label %81, label %add_eq_member.exit

81:                                               ; preds = %64
  store i8 1, ptr %75, align 8
  store i8 1, ptr %34, align 8
  br label %add_eq_member.exit

add_eq_member.exit:                               ; preds = %64, %81
  %82 = load ptr, ptr %29, align 8
  %83 = call ptr @lappend(ptr noundef %82, ptr noundef nonnull %72) #8
  store ptr %83, ptr %29, align 8
  %84 = load ptr, ptr %17, align 8
  %85 = call ptr @bms_add_member(ptr noundef %84, i32 noundef %19) #8
  store ptr %85, ptr %17, align 8
  br label %86

86:                                               ; preds = %47, %51, %add_eq_member.exit, %43, %35
  %indvars.iv.next = add nuw nsw i64 %indvars.iv, 1
  %exitcond.not = icmp eq i64 %indvars.iv.next, %wide.trip.count
  br i1 %exitcond.not, label %.loopexit, label %35, !llvm.loop !23

.loopexit:                                        ; preds = %86, %28, %list_length.exit, %18
  %87 = load ptr, ptr %10, align 8
  %88 = call i32 @bms_next_member(ptr noundef %87, i32 noundef %19) #8
  %89 = icmp sgt i32 %88, -1
  br i1 %89, label %18, label %._crit_edge

._crit_edge:                                      ; preds = %.loopexit, %4
  ret void
}